; Function Attrs: nounwind uwtable
define internal i32 @odict_mp_ass_sub(ptr noundef %0, ptr noundef %1, ptr noundef %2) #0 {
  %4 = icmp eq ptr %2, null
  %5 = tail call i64 @PyObject_Hash(ptr noundef %1) #8
  %6 = icmp eq i64 %5, -1
  br i1 %4, label %7, label %13

7:                                                ; preds = %3
  br i1 %6, label %PyODict_DelItem.exit, label %8

8:                                                ; preds = %7
  %9 = tail call fastcc i32 @_odict_clear_node(ptr noundef %0, ptr noundef null, ptr noundef %1, i64 noundef %5)
  %10 = icmp slt i32 %9, 0
  br i1 %10, label %PyODict_DelItem.exit, label %11

11:                                               ; preds = %8
  %12 = tail call i32 @_PyDict_DelItem_KnownHash(ptr noundef %0, ptr noundef %1, i64 noundef %5) #8
  br label %PyODict_DelItem.exit

13:                                               ; preds = %3
  br i1 %6, label %PyODict_DelItem.exit, label %14

14:                                               ; preds = %13
  %15 = tail call fastcc i32 @_PyODict_SetItem_KnownHash(ptr noundef %0, ptr noundef %1, ptr noundef nonnull %2, i64 noundef %5)
  br label %PyODict_DelItem.exit

PyODict_DelItem.exit:                             ; preds = %14, %13, %11, %8, %7
  %.0 = phi i32 [ %12, %11 ], [ -1, %7 ], [ -1, %8 ], [ %15, %14 ], [ -1, %13 ]
  ret i32 %.0
}